target datalayout = "e-m:e-p270:32:32-p271:32:32-p272:64:64-i64:64-i128:128-f80:128-n8:16:32:64-S128"
target triple = "x86_64-pc-linux-gnu"

@bgchild_exited = internal global i32 0, align 4
@.str.247 = private unnamed_addr constant [35 x i8] c"could not get COPY data stream: %s\00", align 1
@.str.248 = private unnamed_addr constant [29 x i8] c"could not read COPY data: %s\00", align 1
@.str.249 = private unnamed_addr constant [43 x i8] c"background process terminated unexpectedly\00", align 1

; Function Attrs: nounwind uwtable
define internal void @ReceiveCopyData(ptr noundef %0, ptr noundef %1, ptr noundef %2) #0 {
  %4 = alloca ptr, align 8
  %5 = alloca ptr, align 8
  %6 = alloca ptr, align 8
  %7 = alloca ptr, align 8
  %8 = alloca i32, align 4
  %9 = alloca ptr, align 8
  %10 = alloca i32, align 4
  store ptr %0, ptr %4, align 8
  store ptr %1, ptr %5, align 8
  store ptr %2, ptr %6, align 8
  call void @llvm.lifetime.start.p0(i64 8, ptr %7) #12
  %11 = load ptr, ptr %4, align 8
  %12 = call ptr @PQgetResult(ptr noundef %11)
  store ptr %12, ptr %7, align 8
  %13 = load ptr, ptr %7, align 8
  %14 = call i32 @PQresultStatus(ptr noundef %13)
  %15 = icmp ne i32 %14, 3
  br i1 %15, label %16, label %22

16:                                               ; preds = %3
  br label %17

17:                                               ; preds = %16
  %18 = load ptr, ptr %4, align 8
  %19 = call ptr @PQerrorMessage(ptr noundef %18)
  call void (i32, i32, ptr, ...) @pg_log_generic(i32 noundef 4, i32 noundef 0, ptr noundef @.str.247, ptr noundef %19)
  call void @exit(i32 noundef 1) #14
  unreachable

20:                                               ; No predecessors!
  br label %21

21:                                               ; preds = %20
  br label %22

22:                                               ; preds = %21, %3
  %23 = load ptr, ptr %7, align 8
  call void @PQclear(ptr noundef %23)
  br label %24

24:                                               ; preds = %57, %22
  br label %25

25:                                               ; preds = %24
  call void @llvm.lifetime.start.p0(i64 4, ptr %8) #12
  call void @llvm.lifetime.start.p0(i64 8, ptr %9) #12
  %26 = load ptr, ptr %4, align 8
  %27 = call i32 @PQgetCopyData(ptr noundef %26, ptr noundef %9, i32 noundef 0)
  store i32 %27, ptr %8, align 4
  %28 = load i32, ptr %8, align 4
  %29 = icmp eq i32 %28, -1
  br i1 %29, label %30, label %31

30:                                               ; preds = %25
  store i32 5, ptr %10, align 4
  br label %55

31:                                               ; preds = %25
  %32 = load i32, ptr %8, align 4
  %33 = icmp eq i32 %32, -2
  br i1 %33, label %34, label %40

34:                                               ; preds = %31
  br label %35

35:                                               ; preds = %34
  %36 = load ptr, ptr %4, align 8
  %37 = call ptr @PQerrorMessage(ptr noundef %36)
  call void (i32, i32, ptr, ...) @pg_log_generic(i32 noundef 4, i32 noundef 0, ptr noundef @.str.248, ptr noundef %37)
  call void @exit(i32 noundef 1) #14
  unreachable

38:                                               ; No predecessors!
  br label %39

39:                                               ; preds = %38
  br label %40

40:                                               ; preds = %39, %31
  br label %41

41:                                               ; preds = %40
  %42 = load volatile i32, ptr @bgchild_exited, align 4
  %43 = icmp ne i32 %42, 0
  br i1 %43, label %44, label %48

44:                                               ; preds = %41
  br label %45

45:                                               ; preds = %44
  call void (i32, i32, ptr, ...) @pg_log_generic(i32 noundef 4, i32 noundef 0, ptr noundef @.str.249)
  call void @exit(i32 noundef 1) #14
  unreachable

46:                                               ; No predecessors!
  br label %47

47:                                               ; preds = %46
  br label %48

48:                                               ; preds = %47, %41
  %49 = load ptr, ptr %5, align 8
  %50 = load i32, ptr %8, align 4
  %51 = sext i32 %50 to i64
  %52 = load ptr, ptr %9, align 8
  %53 = load ptr, ptr %6, align 8
  call void %49(i64 noundef %51, ptr noundef %52, ptr noundef %53)
  %54 = load ptr, ptr %9, align 8
  call void @PQfreemem(ptr noundef %54)
  store i32 0, ptr %10, align 4
  br label %55

55:                                               ; preds = %48, %30
  call void @llvm.lifetime.end.p0(i64 8, ptr %9) #12
  call void @llvm.lifetime.end.p0(i64 4, ptr %8) #12
  %56 = load i32, ptr %10, align 4
  switch i32 %56, label %59 [
    i32 0, label %57
    i32 5, label %58
  ]

57:                                               ; preds = %55
  br label %24

58:                                               ; preds = %55
  call void @llvm.lifetime.end.p0(i64 8, ptr %7) #12
  ret void

59:                                               ; preds = %55
  unreachable
}