; Function Attrs: nounwind uwtable
define internal fastcc void @ReceiveCopyData(ptr noundef %0, ptr noundef readonly captures(none) %1, ptr noundef nonnull %2) unnamed_addr #0 {
  %4 = alloca ptr, align 8
  %5 = tail call ptr @PQgetResult(ptr noundef %0) #17
  %6 = tail call i32 @PQresultStatus(ptr noundef %5) #17
  %.not = icmp eq i32 %6, 3
  br i1 %.not, label %9, label %7

7:                                                ; preds = %3
  %8 = tail call ptr @PQerrorMessage(ptr noundef %0) #17
  tail call void (i32, i32, ptr, ...) @pg_log_generic(i32 noundef 4, i32 noundef 0, ptr noundef nonnull @.str.247, ptr noundef %8) #17
  tail call void @exit(i32 noundef 1) #20
  unreachable

9:                                                ; preds = %3
  tail call void @PQclear(ptr noundef %5) #17
  br label %10

10:                                               ; preds = %17, %9
  call void @llvm.lifetime.start.p0(i64 8, ptr nonnull %4) #17
  %11 = call i32 @PQgetCopyData(ptr noundef %0, ptr noundef nonnull %4, i32 noundef 0) #17
  switch i32 %11, label %14 [
    i32 -1, label %21
    i32 -2, label %12
  ]

12:                                               ; preds = %10
  %13 = call ptr @PQerrorMessage(ptr noundef %0) #17
  call void (i32, i32, ptr, ...) @pg_log_generic(i32 noundef 4, i32 noundef 0, ptr noundef nonnull @.str.248, ptr noundef %13) #17
  call void @exit(i32 noundef 1) #20
  unreachable

14:                                               ; preds = %10
  %15 = load volatile i32, ptr @bgchild_exited, align 4
  %.not12 = icmp eq i32 %15, 0
  br i1 %.not12, label %17, label %16

16:                                               ; preds = %14
  call void (i32, i32, ptr, ...) @pg_log_generic(i32 noundef 4, i32 noundef 0, ptr noundef nonnull @.str.249) #17
  call void @exit(i32 noundef 1) #20
  unreachable

17:                                               ; preds = %14
  %18 = sext i32 %11 to i64
  %19 = load ptr, ptr %4, align 8
  call void %1(i64 noundef %18, ptr noundef %19, ptr noundef nonnull %2) #17, !callees !15
  %20 = load ptr, ptr %4, align 8
  call void @PQfreemem(ptr noundef %20) #17
  call void @llvm.lifetime.end.p0(i64 8, ptr nonnull %4) #17
  br label %10

21:                                               ; preds = %10
  call void @llvm.lifetime.end.p0(i64 8, ptr nonnull %4) #17
  ret void
}